; Function Attrs: mustprogress uwtable
define hidden void @_ZN4cvc58internal6theory11TheoryState16notifyInConflictEv(ptr noundef nonnull align 8 dereferenceable(160) %0) unnamed_addr #3 align 2 {
  %2 = getelementptr inbounds nuw i8, ptr %0, i64 40
  %3 = load ptr, ptr %2, align 8, !tbaa !31
  %4 = load ptr, ptr %3, align 8, !tbaa !32
  %5 = getelementptr inbounds nuw i8, ptr %4, i64 16
  %6 = load ptr, ptr %5, align 8, !tbaa !41
  %7 = getelementptr inbounds i8, ptr %6, i64 -8
  %8 = load ptr, ptr %7, align 8, !tbaa !43
  %9 = icmp eq ptr %3, %8
  br i1 %9, label %_ZN4cvc57context3CDOIbEaSERKb.exit, label %10

10:                                               ; preds = %1
  %11 = getelementptr inbounds nuw i8, ptr %0, i64 32
  tail call void @_ZN4cvc57context10ContextObj6updateEv(ptr noundef nonnull align 8 dereferenceable(41) %11)
  br label %_ZN4cvc57context3CDOIbEaSERKb.exit

_ZN4cvc57context3CDOIbEaSERKb.exit:               ; preds = %1, %10
  %12 = getelementptr inbounds nuw i8, ptr %0, i64 72
  store i8 1, ptr %12, align 8, !tbaa !30
  ret void
}